(lp1
S'Sci-Fi/Fantasy'
p2
aS'Entertainment'
p3
aS'Science & Technology'
p4
aS'Sports'
p5
aS'Pets & Animals'
p6
aS'Music'
p7
aS'Action/Adventure'
p8
aS'Comedy'
p9
aS'Shows'
p10
aS'Gaming'
p11
aS'Shorts'
p12
aS'Anime/Animation'
p13
aS'Travel & Events'
p14
aS'Autos & Vehicles'
p15
aS'Trailers'
p16
aS'Short Movies'
p17
aS'Thriller'
p18
aS'News & Politics'
p19
aS'Drama'
p20
aS'Movies'
p21
aS'Foreign'
p22
aS'Videoblogging'
p23
aS'Classics'
p24
aS'Documentary'
p25
aS'Howto & Style'
p26
aS'People & Blogs'
p27
aS'Nonprofits & Activism'
p28
aS'Family'
p29
aS'Education'
p30
aS'Horror'
p31
aS'Film & Animation'
p32
a.
